(lp0
S'salary'
p1
aS'bonus'
p2
aS'total_stock_value'
p3
aS'total_payments'
p4
aS'restricted_stock'
p5
aS'exercised_stock_options'
p6
aS'expenses'
p7
aS'shared_receipt_with_poi'
p8
aS'from_poi_frac'
p9
aS'to_poi_frac'
p10
a.