(lp0
S'poi'
p1
aS'salary'
p2
aS'bonus'
p3
aS'total_stock_value'
p4
aS'total_payments'
p5
aS'restricted_stock'
p6
aS'exercised_stock_options'
p7
aS'expenses'
p8
aS'shared_receipt_with_poi'
p9
aS'from_poi_frac'
p10
aS'to_poi_frac'
p11
a.